target datalayout = "e-m:e-p270:32:32-p271:32:32-p272:64:64-i64:64-i128:128-f80:128-n8:16:32:64-S128"
target triple = "x86_64-pc-linux-gnu"

%struct.H5S_hyper_span_info_t = type { i32, ptr, ptr, [2 x %struct.H5S_hyper_op_info_t], ptr, ptr, [0 x i64] }
%struct.H5S_hyper_op_info_t = type { i64, %union.anon.1 }
%union.anon.1 = type { ptr }
%struct.H5S_hyper_span_t = type { i64, i64, ptr, ptr }

@H5S_init_g = external global i8, align 1
@H5_libterm_g = external global i8, align 1

; Function Attrs: nounwind uwtable
define internal void @H5S__hyper_adjust_u_helper(ptr noundef %0, i32 noundef %1, ptr noundef %2, i32 noundef %3, i64 noundef %4) #0 {
  %6 = alloca ptr, align 8
  %7 = alloca i32, align 4
  %8 = alloca ptr, align 8
  %9 = alloca i32, align 4
  %10 = alloca i64, align 8
  %11 = alloca ptr, align 8
  %12 = alloca i32, align 4
  store ptr %0, ptr %6, align 8, !tbaa !107
  store i32 %1, ptr %7, align 4, !tbaa !10
  store ptr %2, ptr %8, align 8, !tbaa !33
  store i32 %3, ptr %9, align 4, !tbaa !10
  store i64 %4, ptr %10, align 8, !tbaa !15
  %13 = load i8, ptr @H5S_init_g, align 1, !tbaa !8, !range !12, !noundef !13
  %14 = trunc i8 %13 to i1
  br i1 %14, label %19, label %15

15:                                               ; preds = %5
  %16 = load i8, ptr @H5_libterm_g, align 1, !tbaa !8, !range !12, !noundef !13
  %17 = trunc i8 %16 to i1
  %18 = xor i1 %17, true
  br label %19

19:                                               ; preds = %15, %5
  %20 = phi i1 [ true, %5 ], [ %18, %15 ]
  %21 = xor i1 %20, true
  %22 = xor i1 %21, true
  %23 = zext i1 %22 to i32
  %24 = sext i32 %23 to i64
  %25 = call i64 @llvm.expect.i64(i64 %24, i64 1)
  %26 = icmp ne i64 %25, 0
  br i1 %26, label %27, label %119

27:                                               ; preds = %19
  %28 = load ptr, ptr %6, align 8, !tbaa !107
  %29 = getelementptr inbounds nuw %struct.H5S_hyper_span_info_t, ptr %28, i32 0, i32 3
  %30 = load i32, ptr %9, align 4, !tbaa !10
  %31 = zext i32 %30 to i64
  %32 = getelementptr inbounds nuw [2 x %struct.H5S_hyper_op_info_t], ptr %29, i64 0, i64 %31
  %33 = getelementptr inbounds nuw %struct.H5S_hyper_op_info_t, ptr %32, i32 0, i32 0
  %34 = load i64, ptr %33, align 8, !tbaa !153
  %35 = load i64, ptr %10, align 8, !tbaa !15
  %36 = icmp ne i64 %34, %35
  br i1 %36, label %37, label %118

37:                                               ; preds = %27
  call void @llvm.lifetime.start.p0(i64 8, ptr %11) #7
  call void @llvm.lifetime.start.p0(i64 4, ptr %12) #7
  store i32 0, ptr %12, align 4, !tbaa !10
  br label %38

38:                                               ; preds = %69, %37
  %39 = load i32, ptr %12, align 4, !tbaa !10
  %40 = load i32, ptr %7, align 4, !tbaa !10
  %41 = icmp ult i32 %39, %40
  br i1 %41, label %42, label %72

42:                                               ; preds = %38
  %43 = load ptr, ptr %8, align 8, !tbaa !33
  %44 = load i32, ptr %12, align 4, !tbaa !10
  %45 = zext i32 %44 to i64
  %46 = getelementptr inbounds nuw i64, ptr %43, i64 %45
  %47 = load i64, ptr %46, align 8, !tbaa !15
  %48 = load ptr, ptr %6, align 8, !tbaa !107
  %49 = getelementptr inbounds nuw %struct.H5S_hyper_span_info_t, ptr %48, i32 0, i32 1
  %50 = load ptr, ptr %49, align 8, !tbaa !33
  %51 = load i32, ptr %12, align 4, !tbaa !10
  %52 = zext i32 %51 to i64
  %53 = getelementptr inbounds nuw i64, ptr %50, i64 %52
  %54 = load i64, ptr %53, align 8, !tbaa !15
  %55 = sub i64 %54, %47
  store i64 %55, ptr %53, align 8, !tbaa !15
  %56 = load ptr, ptr %8, align 8, !tbaa !33
  %57 = load i32, ptr %12, align 4, !tbaa !10
  %58 = zext i32 %57 to i64
  %59 = getelementptr inbounds nuw i64, ptr %56, i64 %58
  %60 = load i64, ptr %59, align 8, !tbaa !15
  %61 = load ptr, ptr %6, align 8, !tbaa !107
  %62 = getelementptr inbounds nuw %struct.H5S_hyper_span_info_t, ptr %61, i32 0, i32 2
  %63 = load ptr, ptr %62, align 8, !tbaa !33
  %64 = load i32, ptr %12, align 4, !tbaa !10
  %65 = zext i32 %64 to i64
  %66 = getelementptr inbounds nuw i64, ptr %63, i64 %65
  %67 = load i64, ptr %66, align 8, !tbaa !15
  %68 = sub i64 %67, %60
  store i64 %68, ptr %66, align 8, !tbaa !15
  br label %69

69:                                               ; preds = %42
  %70 = load i32, ptr %12, align 4, !tbaa !10
  %71 = add i32 %70, 1
  store i32 %71, ptr %12, align 4, !tbaa !10
  br label %38, !llvm.loop !290

72:                                               ; preds = %38
  %73 = load ptr, ptr %6, align 8, !tbaa !107
  %74 = getelementptr inbounds nuw %struct.H5S_hyper_span_info_t, ptr %73, i32 0, i32 4
  %75 = load ptr, ptr %74, align 8, !tbaa !99
  store ptr %75, ptr %11, align 8, !tbaa !99
  br label %76

76:                                               ; preds = %106, %72
  %77 = load ptr, ptr %11, align 8, !tbaa !99
  %78 = icmp ne ptr %77, null
  br i1 %78, label %79, label %110

79:                                               ; preds = %76
  %80 = load ptr, ptr %8, align 8, !tbaa !33
  %81 = load i64, ptr %80, align 8, !tbaa !15
  %82 = load ptr, ptr %11, align 8, !tbaa !99
  %83 = getelementptr inbounds nuw %struct.H5S_hyper_span_t, ptr %82, i32 0, i32 0
  %84 = load i64, ptr %83, align 8, !tbaa !101
  %85 = sub i64 %84, %81
  store i64 %85, ptr %83, align 8, !tbaa !101
  %86 = load ptr, ptr %8, align 8, !tbaa !33
  %87 = load i64, ptr %86, align 8, !tbaa !15
  %88 = load ptr, ptr %11, align 8, !tbaa !99
  %89 = getelementptr inbounds nuw %struct.H5S_hyper_span_t, ptr %88, i32 0, i32 1
  %90 = load i64, ptr %89, align 8, !tbaa !109
  %91 = sub i64 %90, %87
  store i64 %91, ptr %89, align 8, !tbaa !109
  %92 = load ptr, ptr %11, align 8, !tbaa !99
  %93 = getelementptr inbounds nuw %struct.H5S_hyper_span_t, ptr %92, i32 0, i32 2
  %94 = load ptr, ptr %93, align 8, !tbaa !103
  %95 = icmp ne ptr %94, null
  br i1 %95, label %96, label %106

96:                                               ; preds = %79
  %97 = load ptr, ptr %11, align 8, !tbaa !99
  %98 = getelementptr inbounds nuw %struct.H5S_hyper_span_t, ptr %97, i32 0, i32 2
  %99 = load ptr, ptr %98, align 8, !tbaa !103
  %100 = load i32, ptr %7, align 4, !tbaa !10
  %101 = sub i32 %100, 1
  %102 = load ptr, ptr %8, align 8, !tbaa !33
  %103 = getelementptr inbounds i64, ptr %102, i64 1
  %104 = load i32, ptr %9, align 4, !tbaa !10
  %105 = load i64, ptr %10, align 8, !tbaa !15
  call void @H5S__hyper_adjust_u_helper(ptr noundef %99, i32 noundef %101, ptr noundef %103, i32 noundef %104, i64 noundef %105)
  br label %106

106:                                              ; preds = %96, %79
  %107 = load ptr, ptr %11, align 8, !tbaa !99
  %108 = getelementptr inbounds nuw %struct.H5S_hyper_span_t, ptr %107, i32 0, i32 3
  %109 = load ptr, ptr %108, align 8, !tbaa !108
  store ptr %109, ptr %11, align 8, !tbaa !99
  br label %76, !llvm.loop !291

110:                                              ; preds = %76
  %111 = load i64, ptr %10, align 8, !tbaa !15
  %112 = load ptr, ptr %6, align 8, !tbaa !107
  %113 = getelementptr inbounds nuw %struct.H5S_hyper_span_info_t, ptr %112, i32 0, i32 3
  %114 = load i32, ptr %9, align 4, !tbaa !10
  %115 = zext i32 %114 to i64
  %116 = getelementptr inbounds nuw [2 x %struct.H5S_hyper_op_info_t], ptr %113, i64 0, i64 %115
  %117 = getelementptr inbounds nuw %struct.H5S_hyper_op_info_t, ptr %116, i32 0, i32 0
  store i64 %111, ptr %117, align 8, !tbaa !153
  call void @llvm.lifetime.end.p0(i64 4, ptr %12) #7
  call void @llvm.lifetime.end.p0(i64 8, ptr %11) #7
  br label %118

118:                                              ; preds = %110, %27
  br label %119

119:                                              ; preds = %118, %19
  ret void
}