; Function Attrs: nofree nosync nounwind memory(readwrite, inaccessiblemem: none) uwtable
define internal fastcc void @H5S__hyper_adjust_u_helper(ptr noundef captures(none) %0, i32 noundef %1, ptr noundef readonly captures(none) %2, i64 noundef %3) unnamed_addr #3 {
  %5 = load i8, ptr @H5S_init_g, align 1, !tbaa !3, !range !7, !noundef !8
  %6 = trunc nuw i8 %5 to i1
  %7 = load i8, ptr @H5_libterm_g, align 1, !range !7
  %8 = trunc nuw i8 %7 to i1
  %9 = xor i1 %8, true
  %10 = select i1 %6, i1 true, i1 %9
  br i1 %10, label %11, label %44, !prof !9

11:                                               ; preds = %4
  %12 = getelementptr inbounds nuw i8, ptr %0, i64 24
  %13 = load i64, ptr %12, align 8, !tbaa !146
  %.not = icmp eq i64 %13, %3
  br i1 %.not, label %44, label %.preheader

.preheader:                                       ; preds = %11
  %.not42 = icmp eq i32 %1, 0
  br i1 %.not42, label %._crit_edge, label %.lr.ph

.lr.ph:                                           ; preds = %.preheader
  %14 = getelementptr inbounds nuw i8, ptr %0, i64 8
  %15 = load ptr, ptr %14, align 8, !tbaa !31
  %16 = getelementptr inbounds nuw i8, ptr %0, i64 16
  %17 = load ptr, ptr %16, align 8, !tbaa !31
  %wide.trip.count = zext i32 %1 to i64
  br label %18

18:                                               ; preds = %.lr.ph, %18
  %indvars.iv = phi i64 [ 0, %.lr.ph ], [ %indvars.iv.next, %18 ]
  %19 = getelementptr inbounds nuw i64, ptr %2, i64 %indvars.iv
  %20 = load i64, ptr %19, align 8, !tbaa !11
  %21 = getelementptr inbounds nuw i64, ptr %15, i64 %indvars.iv
  %22 = load i64, ptr %21, align 8, !tbaa !11
  %23 = sub i64 %22, %20
  store i64 %23, ptr %21, align 8, !tbaa !11
  %24 = load i64, ptr %19, align 8, !tbaa !11
  %25 = getelementptr inbounds nuw i64, ptr %17, i64 %indvars.iv
  %26 = load i64, ptr %25, align 8, !tbaa !11
  %27 = sub i64 %26, %24
  store i64 %27, ptr %25, align 8, !tbaa !11
  %indvars.iv.next = add nuw nsw i64 %indvars.iv, 1
  %exitcond.not = icmp eq i64 %indvars.iv.next, %wide.trip.count
  br i1 %exitcond.not, label %._crit_edge, label %18, !llvm.loop !270

._crit_edge:                                      ; preds = %18, %.preheader
  %28 = getelementptr inbounds nuw i8, ptr %0, i64 56
  %.02936 = load ptr, ptr %28, align 8, !tbaa !88
  %.not3337 = icmp eq ptr %.02936, null
  br i1 %.not3337, label %._crit_edge41, label %.lr.ph40

.lr.ph40:                                         ; preds = %._crit_edge
  %29 = add i32 %1, -1
  %30 = getelementptr inbounds nuw i8, ptr %2, i64 8
  br label %31

31:                                               ; preds = %.lr.ph40, %42
  %.02938 = phi ptr [ %.02936, %.lr.ph40 ], [ %.029, %42 ]
  %32 = load i64, ptr %2, align 8, !tbaa !11
  %33 = load i64, ptr %.02938, align 8, !tbaa !90
  %34 = sub i64 %33, %32
  store i64 %34, ptr %.02938, align 8, !tbaa !90
  %35 = load i64, ptr %2, align 8, !tbaa !11
  %36 = getelementptr inbounds nuw i8, ptr %.02938, i64 8
  %37 = load i64, ptr %36, align 8, !tbaa !97
  %38 = sub i64 %37, %35
  store i64 %38, ptr %36, align 8, !tbaa !97
  %39 = getelementptr inbounds nuw i8, ptr %.02938, i64 16
  %40 = load ptr, ptr %39, align 8, !tbaa !92
  %.not34 = icmp eq ptr %40, null
  br i1 %.not34, label %42, label %41

41:                                               ; preds = %31
  tail call fastcc void @H5S__hyper_adjust_u_helper(ptr noundef nonnull %40, i32 noundef %29, ptr noundef nonnull %30, i64 noundef %3)
  br label %42

42:                                               ; preds = %41, %31
  %43 = getelementptr inbounds nuw i8, ptr %.02938, i64 24
  %.029 = load ptr, ptr %43, align 8, !tbaa !88
  %.not33 = icmp eq ptr %.029, null
  br i1 %.not33, label %._crit_edge41, label %31, !llvm.loop !271

._crit_edge41:                                    ; preds = %42, %._crit_edge
  store i64 %3, ptr %12, align 8, !tbaa !146
  br label %44

44:                                               ; preds = %11, %._crit_edge41, %4
  ret void
}